; ModuleID = '21/1277.c'
source_filename = "21/1277.c"
target datalayout = "e-m:e-p270:32:32-p271:32:32-p272:64:64-i64:64-f80:128-n8:16:32:64-S128"
target triple = "x86_64-pc-linux-gnu"

@.str = private unnamed_addr constant [3 x i8] c"%d\00", align 1
@.str.1 = private unnamed_addr constant [4 x i8] c",%d\00", align 1

; Function Attrs: noinline nounwind uwtable
define dso_local i32 @main() #0 {
  %1 = alloca i32, align 4
  %2 = alloca i32, align 4
  %3 = alloca i32, align 4
  %4 = alloca i32, align 4
  %5 = alloca i32, align 4
  %6 = alloca i32, align 4
  %7 = alloca [300 x i32], align 16
  %8 = alloca [300 x i32], align 16
  %9 = alloca double, align 8
  %10 = alloca double, align 8
  %11 = alloca double, align 8
  store i32 0, i32* %1, align 4
  store i32 0, i32* %5, align 4
  store i32 0, i32* %6, align 4
  store double 0.000000e+00, double* %11, align 8
  %12 = call i32 (i8*, ...) @__isoc99_scanf(i8* getelementptr inbounds ([3 x i8], [3 x i8]* @.str, i64 0, i64 0), i32* %3)
  store i32 0, i32* %2, align 4
  br label %13

13:                                               ; preds = %29, %0
  %14 = load i32, i32* %2, align 4
  %15 = load i32, i32* %3, align 4
  %16 = icmp slt i32 %14, %15
  br i1 %16, label %17, label %32

17:                                               ; preds = %13
  %18 = load i32, i32* %2, align 4
  %19 = sext i32 %18 to i64
  %20 = getelementptr inbounds [300 x i32], [300 x i32]* %7, i64 0, i64 %19
  %21 = call i32 (i8*, ...) @__isoc99_scanf(i8* getelementptr inbounds ([3 x i8], [3 x i8]* @.str, i64 0, i64 0), i32* %20)
  %22 = load i32, i32* %2, align 4
  %23 = sext i32 %22 to i64
  %24 = getelementptr inbounds [300 x i32], [300 x i32]* %7, i64 0, i64 %23
  %25 = load i32, i32* %24, align 4
  %26 = uitofp i32 %25 to double
  %27 = load double, double* %11, align 8
  %28 = fadd double %26, %27
  store double %28, double* %11, align 8
  br label %29

29:                                               ; preds = %17
  %30 = load i32, i32* %2, align 4
  %31 = add nsw i32 %30, 1
  store i32 %31, i32* %2, align 4
  br label %13

32:                                               ; preds = %13
  %33 = load double, double* %11, align 8
  %34 = load i32, i32* %3, align 4
  %35 = sitofp i32 %34 to double
  %36 = fdiv double %33, %35
  store double %36, double* %9, align 8
  %37 = load double, double* %9, align 8
  %38 = getelementptr inbounds [300 x i32], [300 x i32]* %7, i64 0, i64 0
  %39 = load i32, i32* %38, align 16
  %40 = uitofp i32 %39 to double
  %41 = fsub double %37, %40
  %42 = call double @llvm.fabs.f64(double %41)
  store double %42, double* %10, align 8
  store i32 0, i32* %2, align 4
  store i32 0, i32* %4, align 4
  br label %43

43:                                               ; preds = %75, %32
  %44 = load i32, i32* %2, align 4
  %45 = load i32, i32* %3, align 4
  %46 = icmp slt i32 %44, %45
  br i1 %46, label %47, label %78

47:                                               ; preds = %43
  %48 = load double, double* %10, align 8
  %49 = load i32, i32* %2, align 4
  %50 = sext i32 %49 to i64
  %51 = getelementptr inbounds [300 x i32], [300 x i32]* %7, i64 0, i64 %50
  %52 = load i32, i32* %51, align 4
  %53 = uitofp i32 %52 to double
  %54 = load double, double* %9, align 8
  %55 = fsub double %53, %54
  %56 = call double @llvm.fabs.f64(double %55)
  %57 = fcmp olt double %48, %56
  br i1 %57, label %58, label %74

58:                                               ; preds = %47
  %59 = load i32, i32* %2, align 4
  %60 = sext i32 %59 to i64
  %61 = getelementptr inbounds [300 x i32], [300 x i32]* %7, i64 0, i64 %60
  %62 = load i32, i32* %61, align 4
  %63 = uitofp i32 %62 to double
  %64 = load double, double* %9, align 8
  %65 = fsub double %63, %64
  %66 = call double @llvm.fabs.f64(double %65)
  store double %66, double* %10, align 8
  %67 = load i32, i32* %2, align 4
  %68 = sext i32 %67 to i64
  %69 = getelementptr inbounds [300 x i32], [300 x i32]* %7, i64 0, i64 %68
  %70 = load i32, i32* %69, align 4
  %71 = load i32, i32* %4, align 4
  %72 = sext i32 %71 to i64
  %73 = getelementptr inbounds [300 x i32], [300 x i32]* %8, i64 0, i64 %72
  store i32 %70, i32* %73, align 4
  store i32 1, i32* %5, align 4
  br label %74

74:                                               ; preds = %58, %47
  br label %75

75:                                               ; preds = %74
  %76 = load i32, i32* %2, align 4
  %77 = add nsw i32 %76, 1
  store i32 %77, i32* %2, align 4
  br label %43

78:                                               ; preds = %43
  %79 = load i32, i32* %5, align 4
  %80 = icmp ne i32 %79, 1
  br i1 %80, label %81, label %85

81:                                               ; preds = %78
  %82 = getelementptr inbounds [300 x i32], [300 x i32]* %7, i64 0, i64 0
  %83 = load i32, i32* %82, align 16
  %84 = getelementptr inbounds [300 x i32], [300 x i32]* %8, i64 0, i64 0
  store i32 %83, i32* %84, align 16
  br label %85

85:                                               ; preds = %81, %78
  %86 = getelementptr inbounds [300 x i32], [300 x i32]* %8, i64 0, i64 0
  %87 = load i32, i32* %86, align 16
  %88 = add i32 %87, 1
  store i32 %88, i32* %2, align 4
  store i32 1, i32* %4, align 4
  br label %89

89:                                               ; preds = %117, %85
  %90 = load i32, i32* %2, align 4
  %91 = load i32, i32* %3, align 4
  %92 = icmp slt i32 %90, %91
  br i1 %92, label %93, label %120

93:                                               ; preds = %89
  %94 = load double, double* %10, align 8
  %95 = load i32, i32* %2, align 4
  %96 = sext i32 %95 to i64
  %97 = getelementptr inbounds [300 x i32], [300 x i32]* %7, i64 0, i64 %96
  %98 = load i32, i32* %97, align 4
  %99 = uitofp i32 %98 to double
  %100 = load double, double* %9, align 8
  %101 = fsub double %99, %100
  %102 = call double @llvm.fabs.f64(double %101)
  %103 = fcmp oeq double %94, %102
  br i1 %103, label %104, label %116

104:                                              ; preds = %93
  %105 = load i32, i32* %2, align 4
  %106 = sext i32 %105 to i64
  %107 = getelementptr inbounds [300 x i32], [300 x i32]* %7, i64 0, i64 %106
  %108 = load i32, i32* %107, align 4
  %109 = load i32, i32* %4, align 4
  %110 = sext i32 %109 to i64
  %111 = getelementptr inbounds [300 x i32], [300 x i32]* %8, i64 0, i64 %110
  store i32 %108, i32* %111, align 4
  %112 = load i32, i32* %4, align 4
  %113 = add nsw i32 %112, 1
  store i32 %113, i32* %4, align 4
  %114 = load i32, i32* %6, align 4
  %115 = add nsw i32 %114, 1
  store i32 %115, i32* %6, align 4
  br label %116

116:                                              ; preds = %104, %93
  br label %117

117:                                              ; preds = %116
  %118 = load i32, i32* %2, align 4
  %119 = add nsw i32 %118, 1
  store i32 %119, i32* %2, align 4
  br label %89

120:                                              ; preds = %89
  %121 = getelementptr inbounds [300 x i32], [300 x i32]* %8, i64 0, i64 0
  %122 = load i32, i32* %121, align 16
  %123 = call i32 (i8*, ...) @printf(i8* getelementptr inbounds ([3 x i8], [3 x i8]* @.str, i64 0, i64 0), i32 %122)
  store i32 1, i32* %2, align 4
  br label %124

124:                                              ; preds = %134, %120
  %125 = load i32, i32* %2, align 4
  %126 = load i32, i32* %6, align 4
  %127 = icmp sle i32 %125, %126
  br i1 %127, label %128, label %137

128:                                              ; preds = %124
  %129 = load i32, i32* %2, align 4
  %130 = sext i32 %129 to i64
  %131 = getelementptr inbounds [300 x i32], [300 x i32]* %8, i64 0, i64 %130
  %132 = load i32, i32* %131, align 4
  %133 = call i32 (i8*, ...) @printf(i8* getelementptr inbounds ([4 x i8], [4 x i8]* @.str.1, i64 0, i64 0), i32 %132)
  br label %134

134:                                              ; preds = %128
  %135 = load i32, i32* %2, align 4
  %136 = add nsw i32 %135, 1
  store i32 %136, i32* %2, align 4
  br label %124

137:                                              ; preds = %124
  ret i32 0
}

declare dso_local i32 @__isoc99_scanf(i8*, ...) #1

; Function Attrs: nounwind readnone speculatable willreturn
declare double @llvm.fabs.f64(double) #2

declare dso_local i32 @printf(i8*, ...) #1


!llvm.module.flags = !{!0}
!llvm.ident = !{!1}

!0 = !{i32 1, !"wchar_size", i32 4}
!1 = !{!"clang version 10.0.0-4ubuntu1 "}
